target datalayout = "e-m:e-p270:32:32-p271:32:32-p272:64:64-i64:64-i128:128-f80:128-n8:16:32:64-S128"
target triple = "x86_64-pc-linux-gnu"

%struct.tng_molecule = type { i64, i64, i64, i64, i64, i64, ptr, ptr, ptr, ptr, ptr }

; Function Attrs: nounwind uwtable
define i32 @tng_molecule_name_get(ptr noundef %0, ptr noundef %1, ptr noundef %2, i32 noundef %3) #0 {
  %5 = alloca i32, align 4
  %6 = alloca ptr, align 8
  %7 = alloca ptr, align 8
  %8 = alloca ptr, align 8
  %9 = alloca i32, align 4
  store ptr %0, ptr %6, align 8, !tbaa !3
  store ptr %1, ptr %7, align 8, !tbaa !45
  store ptr %2, ptr %8, align 8, !tbaa !19
  store i32 %3, ptr %9, align 4, !tbaa !20
  %10 = load ptr, ptr %8, align 8, !tbaa !19
  %11 = load ptr, ptr %7, align 8, !tbaa !45
  %12 = getelementptr inbounds nuw %struct.tng_molecule, ptr %11, i32 0, i32 6
  %13 = load ptr, ptr %12, align 8, !tbaa !49
  %14 = load i32, ptr %9, align 4, !tbaa !20
  %15 = sub nsw i32 %14, 1
  %16 = sext i32 %15 to i64
  %17 = call ptr @strncpy(ptr noundef %10, ptr noundef %13, i64 noundef %16) #11
  %18 = load ptr, ptr %8, align 8, !tbaa !19
  %19 = load i32, ptr %9, align 4, !tbaa !20
  %20 = sub nsw i32 %19, 1
  %21 = sext i32 %20 to i64
  %22 = getelementptr inbounds i8, ptr %18, i64 %21
  store i8 0, ptr %22, align 1, !tbaa !23
  %23 = load ptr, ptr %7, align 8, !tbaa !45
  %24 = getelementptr inbounds nuw %struct.tng_molecule, ptr %23, i32 0, i32 6
  %25 = load ptr, ptr %24, align 8, !tbaa !49
  %26 = call i64 @strlen(ptr noundef %25) #12
  %27 = load i32, ptr %9, align 4, !tbaa !20
  %28 = sub i32 %27, 1
  %29 = zext i32 %28 to i64
  %30 = icmp ugt i64 %26, %29
  br i1 %30, label %31, label %32

31:                                               ; preds = %4
  store i32 1, ptr %5, align 4
  br label %33

32:                                               ; preds = %4
  store i32 0, ptr %5, align 4
  br label %33

33:                                               ; preds = %32, %31
  %34 = load i32, ptr %5, align 4
  ret i32 %34
}